target datalayout = "e-m:e-p270:32:32-p271:32:32-p272:64:64-i64:64-i128:128-f80:128-n8:16:32:64-S128"
target triple = "x86_64-pc-linux-gnu"

%struct.formnode = type { i16, i16, i16, i32, i32, i32, i32, i16, i16, i16, i32, ptr, ptr, ptr, ptr, ptr, ptr, ptr, ptr, ptr, ptr, ptr }
%struct.fieldnode = type { i16, i16, i16, i16, i16, i32, i32, i32, i32, i16, i16, i16, i16, i32, i32, i32, i32, ptr, ptr, ptr, ptr, ptr, ptr, ptr, ptr }
%struct._win_st = type { i16, i16, i16, i16, i16, i16, i16, i32, i32, i8, i8, i8, i8, i8, i8, i8, i8, i8, i32, ptr, i16, i16, i32, i32, ptr, %struct.pdat, i16 }
%struct.pdat = type { i16, i16, i16, i16, i16, i16 }

@stdscr = external global ptr, align 8

; Function Attrs: nounwind uwtable
define internal ptr @After_End_Of_Data(ptr noundef %0, i32 noundef %1) #0 {
  %3 = alloca ptr, align 8
  %4 = alloca i32, align 4
  %5 = alloca ptr, align 8
  store ptr %0, ptr %3, align 8, !tbaa !55
  store i32 %1, ptr %4, align 4, !tbaa !35
  call void @llvm.lifetime.start.p0(i64 8, ptr %5) #9
  %6 = load ptr, ptr %3, align 8, !tbaa !55
  %7 = load i32, ptr %4, align 4, !tbaa !35
  %8 = sext i32 %7 to i64
  %9 = getelementptr inbounds i8, ptr %6, i64 %8
  store ptr %9, ptr %5, align 8, !tbaa !55
  br label %10

10:                                               ; preds = %22, %2
  %11 = load ptr, ptr %5, align 8, !tbaa !55
  %12 = load ptr, ptr %3, align 8, !tbaa !55
  %13 = icmp ugt ptr %11, %12
  br i1 %13, label %14, label %20

14:                                               ; preds = %10
  %15 = load ptr, ptr %5, align 8, !tbaa !55
  %16 = getelementptr inbounds i8, ptr %15, i64 -1
  %17 = load i8, ptr %16, align 1, !tbaa !65
  %18 = sext i8 %17 to i32
  %19 = icmp eq i32 %18, 32
  br label %20

20:                                               ; preds = %14, %10
  %21 = phi i1 [ false, %10 ], [ %19, %14 ]
  br i1 %21, label %22, label %25

22:                                               ; preds = %20
  %23 = load ptr, ptr %5, align 8, !tbaa !55
  %24 = getelementptr inbounds i8, ptr %23, i32 -1
  store ptr %24, ptr %5, align 8, !tbaa !55
  br label %10, !llvm.loop !116

25:                                               ; preds = %20
  %26 = load ptr, ptr %5, align 8, !tbaa !55
  call void @llvm.lifetime.end.p0(i64 8, ptr %5) #9
  ret ptr %26
}

; Function Attrs: nounwind uwtable
define internal void @Buffer_To_Window(ptr noundef %0, ptr noundef %1) #0 {
  %3 = alloca ptr, align 8
  %4 = alloca ptr, align 8
  %5 = alloca i32, align 4
  %6 = alloca i32, align 4
  %7 = alloca i32, align 4
  %8 = alloca i32, align 4
  %9 = alloca ptr, align 8
  store ptr %0, ptr %3, align 8, !tbaa !17
  store ptr %1, ptr %4, align 8, !tbaa !20
  call void @llvm.lifetime.start.p0(i64 4, ptr %5) #9
  call void @llvm.lifetime.start.p0(i64 4, ptr %6) #9
  call void @llvm.lifetime.start.p0(i64 4, ptr %7) #9
  call void @llvm.lifetime.start.p0(i64 4, ptr %8) #9
  call void @llvm.lifetime.start.p0(i64 8, ptr %9) #9
  %10 = load ptr, ptr %4, align 8, !tbaa !20
  %11 = icmp ne ptr null, %10
  br i1 %11, label %12, label %18

12:                                               ; preds = %2
  %13 = load ptr, ptr %4, align 8, !tbaa !20
  %14 = getelementptr inbounds nuw %struct._win_st, ptr %13, i32 0, i32 2
  %15 = load i16, ptr %14, align 4, !tbaa !38
  %16 = sext i16 %15 to i32
  %17 = add nsw i32 %16, 1
  br label %19

18:                                               ; preds = %2
  br label %19

19:                                               ; preds = %18, %12
  %20 = phi i32 [ %17, %12 ], [ -1, %18 ]
  store i32 %20, ptr %6, align 4, !tbaa !35
  %21 = load ptr, ptr %4, align 8, !tbaa !20
  %22 = icmp ne ptr null, %21
  br i1 %22, label %23, label %29

23:                                               ; preds = %19
  %24 = load ptr, ptr %4, align 8, !tbaa !20
  %25 = getelementptr inbounds nuw %struct._win_st, ptr %24, i32 0, i32 3
  %26 = load i16, ptr %25, align 2, !tbaa !56
  %27 = sext i16 %26 to i32
  %28 = add nsw i32 %27, 1
  br label %30

29:                                               ; preds = %19
  br label %30

30:                                               ; preds = %29, %23
  %31 = phi i32 [ %28, %23 ], [ -1, %29 ]
  store i32 %31, ptr %5, align 4, !tbaa !35
  store i32 0, ptr %8, align 4, !tbaa !35
  %32 = load ptr, ptr %3, align 8, !tbaa !17
  %33 = getelementptr inbounds nuw %struct.fieldnode, ptr %32, i32 0, i32 23
  %34 = load ptr, ptr %33, align 8, !tbaa !54
  store ptr %34, ptr %9, align 8, !tbaa !55
  br label %35

35:                                               ; preds = %58, %30
  %36 = load i32, ptr %8, align 4, !tbaa !35
  %37 = load i32, ptr %6, align 4, !tbaa !35
  %38 = icmp slt i32 %36, %37
  br i1 %38, label %39, label %65

39:                                               ; preds = %35
  %40 = load ptr, ptr %9, align 8, !tbaa !55
  %41 = load i32, ptr %5, align 4, !tbaa !35
  %42 = call ptr @After_End_Of_Data(ptr noundef %40, i32 noundef %41)
  %43 = load ptr, ptr %9, align 8, !tbaa !55
  %44 = ptrtoint ptr %42 to i64
  %45 = ptrtoint ptr %43 to i64
  %46 = sub i64 %44, %45
  %47 = trunc i64 %46 to i32
  store i32 %47, ptr %7, align 4, !tbaa !35
  %48 = icmp sgt i32 %47, 0
  br i1 %48, label %49, label %57

49:                                               ; preds = %39
  %50 = load ptr, ptr %4, align 8, !tbaa !20
  %51 = load i32, ptr %8, align 4, !tbaa !35
  %52 = call i32 @wmove(ptr noundef %50, i32 noundef %51, i32 noundef 0)
  %53 = load ptr, ptr %4, align 8, !tbaa !20
  %54 = load ptr, ptr %9, align 8, !tbaa !55
  %55 = load i32, ptr %7, align 4, !tbaa !35
  %56 = call i32 @waddnstr(ptr noundef %53, ptr noundef %54, i32 noundef %55)
  br label %57

57:                                               ; preds = %49, %39
  br label %58

58:                                               ; preds = %57
  %59 = load i32, ptr %8, align 4, !tbaa !35
  %60 = add nsw i32 %59, 1
  store i32 %60, ptr %8, align 4, !tbaa !35
  %61 = load i32, ptr %5, align 4, !tbaa !35
  %62 = load ptr, ptr %9, align 8, !tbaa !55
  %63 = sext i32 %61 to i64
  %64 = getelementptr inbounds i8, ptr %62, i64 %63
  store ptr %64, ptr %9, align 8, !tbaa !55
  br label %35, !llvm.loop !57

65:                                               ; preds = %35
  call void @llvm.lifetime.end.p0(i64 8, ptr %9) #9
  call void @llvm.lifetime.end.p0(i64 4, ptr %8) #9
  call void @llvm.lifetime.end.p0(i64 4, ptr %7) #9
  call void @llvm.lifetime.end.p0(i64 4, ptr %6) #9
  call void @llvm.lifetime.end.p0(i64 4, ptr %5) #9
  ret void
}

; Function Attrs: nounwind uwtable
define internal i32 @Display_Or_Erase_Field(ptr noundef %0, i1 noundef zeroext %1) #0 {
  %3 = alloca i32, align 4
  %4 = alloca ptr, align 8
  %5 = alloca i8, align 1
  %6 = alloca ptr, align 8
  %7 = alloca ptr, align 8
  %8 = alloca i32, align 4
  store ptr %0, ptr %4, align 8, !tbaa !17
  %9 = zext i1 %1 to i8
  store i8 %9, ptr %5, align 1, !tbaa !58
  call void @llvm.lifetime.start.p0(i64 8, ptr %6) #9
  call void @llvm.lifetime.start.p0(i64 8, ptr %7) #9
  %10 = load ptr, ptr %4, align 8, !tbaa !17
  %11 = icmp ne ptr %10, null
  br i1 %11, label %13, label %12

12:                                               ; preds = %2
  store i32 -1, ptr %3, align 4
  store i32 1, ptr %8, align 4
  br label %159

13:                                               ; preds = %2
  %14 = load ptr, ptr %4, align 8, !tbaa !17
  %15 = getelementptr inbounds nuw %struct.fieldnode, ptr %14, i32 0, i32 20
  %16 = load ptr, ptr %15, align 8, !tbaa !46
  %17 = getelementptr inbounds nuw %struct.formnode, ptr %16, i32 0, i32 12
  %18 = load ptr, ptr %17, align 8, !tbaa !18
  %19 = icmp ne ptr %18, null
  br i1 %19, label %20, label %26

20:                                               ; preds = %13
  %21 = load ptr, ptr %4, align 8, !tbaa !17
  %22 = getelementptr inbounds nuw %struct.fieldnode, ptr %21, i32 0, i32 20
  %23 = load ptr, ptr %22, align 8, !tbaa !46
  %24 = getelementptr inbounds nuw %struct.formnode, ptr %23, i32 0, i32 12
  %25 = load ptr, ptr %24, align 8, !tbaa !18
  br label %43

26:                                               ; preds = %13
  %27 = load ptr, ptr %4, align 8, !tbaa !17
  %28 = getelementptr inbounds nuw %struct.fieldnode, ptr %27, i32 0, i32 20
  %29 = load ptr, ptr %28, align 8, !tbaa !46
  %30 = getelementptr inbounds nuw %struct.formnode, ptr %29, i32 0, i32 11
  %31 = load ptr, ptr %30, align 8, !tbaa !19
  %32 = icmp ne ptr %31, null
  br i1 %32, label %33, label %39

33:                                               ; preds = %26
  %34 = load ptr, ptr %4, align 8, !tbaa !17
  %35 = getelementptr inbounds nuw %struct.fieldnode, ptr %34, i32 0, i32 20
  %36 = load ptr, ptr %35, align 8, !tbaa !46
  %37 = getelementptr inbounds nuw %struct.formnode, ptr %36, i32 0, i32 11
  %38 = load ptr, ptr %37, align 8, !tbaa !19
  br label %41

39:                                               ; preds = %26
  %40 = load ptr, ptr @stdscr, align 8, !tbaa !20
  br label %41

41:                                               ; preds = %39, %33
  %42 = phi ptr [ %38, %33 ], [ %40, %39 ]
  br label %43

43:                                               ; preds = %41, %20
  %44 = phi ptr [ %25, %20 ], [ %42, %41 ]
  store ptr %44, ptr %7, align 8, !tbaa !20
  %45 = load ptr, ptr %7, align 8, !tbaa !20
  %46 = load ptr, ptr %4, align 8, !tbaa !17
  %47 = getelementptr inbounds nuw %struct.fieldnode, ptr %46, i32 0, i32 1
  %48 = load i16, ptr %47, align 2, !tbaa !28
  %49 = sext i16 %48 to i32
  %50 = load ptr, ptr %4, align 8, !tbaa !17
  %51 = getelementptr inbounds nuw %struct.fieldnode, ptr %50, i32 0, i32 2
  %52 = load i16, ptr %51, align 4, !tbaa !30
  %53 = sext i16 %52 to i32
  %54 = load ptr, ptr %4, align 8, !tbaa !17
  %55 = getelementptr inbounds nuw %struct.fieldnode, ptr %54, i32 0, i32 3
  %56 = load i16, ptr %55, align 2, !tbaa !31
  %57 = sext i16 %56 to i32
  %58 = load ptr, ptr %4, align 8, !tbaa !17
  %59 = getelementptr inbounds nuw %struct.fieldnode, ptr %58, i32 0, i32 4
  %60 = load i16, ptr %59, align 8, !tbaa !33
  %61 = sext i16 %60 to i32
  %62 = call ptr @derwin(ptr noundef %45, i32 noundef %49, i32 noundef %53, i32 noundef %57, i32 noundef %61)
  store ptr %62, ptr %6, align 8, !tbaa !20
  %63 = load ptr, ptr %6, align 8, !tbaa !20
  %64 = icmp ne ptr %63, null
  br i1 %64, label %66, label %65

65:                                               ; preds = %43
  store i32 -1, ptr %3, align 4
  store i32 1, ptr %8, align 4
  br label %159

66:                                               ; preds = %43
  %67 = load ptr, ptr %4, align 8, !tbaa !17
  %68 = getelementptr inbounds nuw %struct.fieldnode, ptr %67, i32 0, i32 16
  %69 = load i32, ptr %68, align 8, !tbaa !23
  %70 = and i32 %69, 1
  %71 = icmp ne i32 %70, 0
  br i1 %71, label %72, label %86

72:                                               ; preds = %66
  %73 = load ptr, ptr %6, align 8, !tbaa !20
  %74 = load ptr, ptr %4, align 8, !tbaa !17
  %75 = getelementptr inbounds nuw %struct.fieldnode, ptr %74, i32 0, i32 13
  %76 = load i32, ptr %75, align 4, !tbaa !50
  %77 = load ptr, ptr %4, align 8, !tbaa !17
  %78 = getelementptr inbounds nuw %struct.fieldnode, ptr %77, i32 0, i32 15
  %79 = load i32, ptr %78, align 4, !tbaa !51
  %80 = or i32 %76, %79
  call void @wbkgdset(ptr noundef %73, i32 noundef %80)
  %81 = load ptr, ptr %6, align 8, !tbaa !20
  %82 = load ptr, ptr %4, align 8, !tbaa !17
  %83 = getelementptr inbounds nuw %struct.fieldnode, ptr %82, i32 0, i32 14
  %84 = load i32, ptr %83, align 8, !tbaa !52
  %85 = call i32 @wattrset(ptr noundef %81, i32 noundef %84)
  br label %98

86:                                               ; preds = %66
  %87 = load ptr, ptr %6, align 8, !tbaa !20
  %88 = load ptr, ptr %7, align 8, !tbaa !20
  %89 = icmp ne ptr null, %88
  br i1 %89, label %90, label %94

90:                                               ; preds = %86
  %91 = load ptr, ptr %7, align 8, !tbaa !20
  %92 = getelementptr inbounds nuw %struct._win_st, ptr %91, i32 0, i32 7
  %93 = load i32, ptr %92, align 8, !tbaa !59
  br label %95

94:                                               ; preds = %86
  br label %95

95:                                               ; preds = %94, %90
  %96 = phi i32 [ %93, %90 ], [ 0, %94 ]
  %97 = call i32 @wattrset(ptr noundef %87, i32 noundef %96)
  br label %98

98:                                               ; preds = %95, %72
  %99 = load ptr, ptr %6, align 8, !tbaa !20
  %100 = call i32 @werase(ptr noundef %99)
  br label %101

101:                                              ; preds = %98
  %102 = load i8, ptr %5, align 1, !tbaa !58, !range !60, !noundef !61
  %103 = trunc i8 %102 to i1
  br i1 %103, label %155, label %104

104:                                              ; preds = %101
  %105 = load ptr, ptr %4, align 8, !tbaa !17
  %106 = getelementptr inbounds nuw %struct.fieldnode, ptr %105, i32 0, i32 16
  %107 = load i32, ptr %106, align 8, !tbaa !23
  %108 = and i32 %107, 4
  %109 = icmp ne i32 %108, 0
  br i1 %109, label %110, label %148

110:                                              ; preds = %104
  %111 = load ptr, ptr %4, align 8, !tbaa !17
  %112 = getelementptr inbounds nuw %struct.fieldnode, ptr %111, i32 0, i32 10
  %113 = load i16, ptr %112, align 2, !tbaa !53
  %114 = sext i16 %113 to i32
  %115 = icmp ne i32 %114, 0
  br i1 %115, label %116, label %144

116:                                              ; preds = %110
  %117 = load ptr, ptr %4, align 8, !tbaa !17
  %118 = getelementptr inbounds nuw %struct.fieldnode, ptr %117, i32 0, i32 1
  %119 = load i16, ptr %118, align 2, !tbaa !28
  %120 = sext i16 %119 to i32
  %121 = load ptr, ptr %4, align 8, !tbaa !17
  %122 = getelementptr inbounds nuw %struct.fieldnode, ptr %121, i32 0, i32 8
  %123 = load i32, ptr %122, align 8, !tbaa !36
  %124 = add nsw i32 %120, %123
  %125 = icmp eq i32 %124, 1
  br i1 %125, label %126, label %144

126:                                              ; preds = %116
  %127 = load ptr, ptr %4, align 8, !tbaa !17
  %128 = getelementptr inbounds nuw %struct.fieldnode, ptr %127, i32 0, i32 6
  %129 = load i32, ptr %128, align 8, !tbaa !29
  %130 = load ptr, ptr %4, align 8, !tbaa !17
  %131 = getelementptr inbounds nuw %struct.fieldnode, ptr %130, i32 0, i32 2
  %132 = load i16, ptr %131, align 4, !tbaa !30
  %133 = sext i16 %132 to i32
  %134 = icmp eq i32 %129, %133
  br i1 %134, label %135, label %144

135:                                              ; preds = %126
  %136 = load ptr, ptr %4, align 8, !tbaa !17
  %137 = getelementptr inbounds nuw %struct.fieldnode, ptr %136, i32 0, i32 16
  %138 = load i32, ptr %137, align 8, !tbaa !23
  %139 = and i32 %138, 512
  %140 = icmp ne i32 %139, 0
  br i1 %140, label %141, label %144

141:                                              ; preds = %135
  %142 = load ptr, ptr %4, align 8, !tbaa !17
  %143 = load ptr, ptr %6, align 8, !tbaa !20
  call void @Perform_Justification(ptr noundef %142, ptr noundef %143)
  br label %147

144:                                              ; preds = %135, %126, %116, %110
  %145 = load ptr, ptr %4, align 8, !tbaa !17
  %146 = load ptr, ptr %6, align 8, !tbaa !20
  call void @Buffer_To_Window(ptr noundef %145, ptr noundef %146)
  br label %147

147:                                              ; preds = %144, %141
  br label %148

148:                                              ; preds = %147, %104
  %149 = load ptr, ptr %4, align 8, !tbaa !17
  %150 = getelementptr inbounds nuw %struct.fieldnode, ptr %149, i32 0, i32 0
  %151 = load i16, ptr %150, align 8, !tbaa !37
  %152 = zext i16 %151 to i32
  %153 = and i32 %152, -3
  %154 = trunc i32 %153 to i16
  store i16 %154, ptr %150, align 8, !tbaa !37
  br label %155

155:                                              ; preds = %148, %101
  %156 = load ptr, ptr %6, align 8, !tbaa !20
  call void @wsyncup(ptr noundef %156)
  %157 = load ptr, ptr %6, align 8, !tbaa !20
  %158 = call i32 @delwin(ptr noundef %157)
  store i32 0, ptr %3, align 4
  store i32 1, ptr %8, align 4
  br label %159

159:                                              ; preds = %155, %65, %12
  call void @llvm.lifetime.end.p0(i64 8, ptr %7) #9
  call void @llvm.lifetime.end.p0(i64 8, ptr %6) #9
  %160 = load i32, ptr %3, align 4
  ret i32 %160
}