; Function Attrs: nounwind uwtable
define internal fastcc range(i32 -1, 1) i32 @Display_Or_Erase_Field(ptr noundef %0, i1 noundef zeroext %1) unnamed_addr #0 {
  %.not = icmp eq ptr %0, null
  br i1 %.not, label %98, label %3

3:                                                ; preds = %2
  %4 = getelementptr inbounds nuw i8, ptr %0, i64 80
  %5 = load ptr, ptr %4, align 8, !tbaa !44
  %6 = getelementptr inbounds nuw i8, ptr %5, i64 48
  %7 = load ptr, ptr %6, align 8, !tbaa !15
  %.not41 = icmp eq ptr %7, null
  br i1 %.not41, label %8, label %12

8:                                                ; preds = %3
  %9 = getelementptr inbounds nuw i8, ptr %5, i64 40
  %10 = load ptr, ptr %9, align 8, !tbaa !16
  %.not42 = icmp eq ptr %10, null
  %11 = load ptr, ptr @stdscr, align 8
  %spec.select = select i1 %.not42, ptr %11, ptr %10
  br label %12

12:                                               ; preds = %8, %3
  %13 = phi ptr [ %7, %3 ], [ %spec.select, %8 ]
  %14 = getelementptr inbounds nuw i8, ptr %0, i64 2
  %15 = load i16, ptr %14, align 2, !tbaa !25
  %16 = sext i16 %15 to i32
  %17 = getelementptr inbounds nuw i8, ptr %0, i64 4
  %18 = load i16, ptr %17, align 4, !tbaa !27
  %19 = sext i16 %18 to i32
  %20 = getelementptr inbounds nuw i8, ptr %0, i64 6
  %21 = load i16, ptr %20, align 2, !tbaa !28
  %22 = sext i16 %21 to i32
  %23 = getelementptr inbounds nuw i8, ptr %0, i64 8
  %24 = load i16, ptr %23, align 8, !tbaa !30
  %25 = sext i16 %24 to i32
  %26 = tail call ptr @derwin(ptr noundef %13, i32 noundef %16, i32 noundef %19, i32 noundef %22, i32 noundef %25) #13
  %.not43 = icmp eq ptr %26, null
  br i1 %.not43, label %98, label %27

27:                                               ; preds = %12
  %28 = getelementptr inbounds nuw i8, ptr %0, i64 48
  %29 = load i32, ptr %28, align 8, !tbaa !19
  %30 = and i32 %29, 1
  %.not44 = icmp eq i32 %30, 0
  br i1 %.not44, label %39, label %31

31:                                               ; preds = %27
  %32 = getelementptr inbounds nuw i8, ptr %0, i64 36
  %33 = load i32, ptr %32, align 4, !tbaa !48
  %34 = getelementptr inbounds nuw i8, ptr %0, i64 44
  %35 = load i32, ptr %34, align 4, !tbaa !49
  %36 = or i32 %35, %33
  tail call void @wbkgdset(ptr noundef nonnull %26, i32 noundef %36) #13
  %37 = getelementptr inbounds nuw i8, ptr %0, i64 40
  %38 = load i32, ptr %37, align 8, !tbaa !50
  br label %43

39:                                               ; preds = %27
  %.not45 = icmp eq ptr %13, null
  br i1 %.not45, label %43, label %40

40:                                               ; preds = %39
  %41 = getelementptr inbounds nuw i8, ptr %13, i64 16
  %42 = load i32, ptr %41, align 8, !tbaa !60
  br label %43

43:                                               ; preds = %40, %39, %31
  %.sink = phi i32 [ %38, %31 ], [ %42, %40 ], [ 0, %39 ]
  %44 = tail call i32 @wattrset(ptr noundef nonnull %26, i32 noundef %.sink) #13
  %45 = tail call i32 @werase(ptr noundef nonnull %26) #13
  br i1 %1, label %96, label %46

46:                                               ; preds = %43
  %47 = load i32, ptr %28, align 8, !tbaa !19
  %48 = and i32 %47, 4
  %.not46 = icmp eq i32 %48, 0
  br i1 %.not46, label %Buffer_To_Window.exit, label %49

49:                                               ; preds = %46
  %50 = getelementptr inbounds nuw i8, ptr %0, i64 30
  %51 = load i16, ptr %50, align 2, !tbaa !51
  %.not47 = icmp eq i16 %51, 0
  br i1 %.not47, label %.thread.i, label %52

52:                                               ; preds = %49
  %53 = load i16, ptr %14, align 2, !tbaa !25
  %54 = sext i16 %53 to i32
  %55 = getelementptr inbounds nuw i8, ptr %0, i64 24
  %56 = load i32, ptr %55, align 8, !tbaa !33
  %57 = add nsw i32 %56, %54
  %58 = icmp eq i32 %57, 1
  br i1 %58, label %59, label %.thread.i

59:                                               ; preds = %52
  %60 = getelementptr inbounds nuw i8, ptr %0, i64 16
  %61 = load i32, ptr %60, align 8, !tbaa !26
  %62 = load i16, ptr %17, align 4, !tbaa !27
  %63 = sext i16 %62 to i32
  %64 = icmp ne i32 %61, %63
  %65 = and i32 %47, 512
  %.not48 = icmp eq i32 %65, 0
  %or.cond = or i1 %.not48, %64
  br i1 %or.cond, label %.thread.i, label %66

66:                                               ; preds = %59
  tail call fastcc void @Perform_Justification(ptr noundef %0, ptr noundef nonnull %26)
  br label %Buffer_To_Window.exit

.thread.i:                                        ; preds = %49, %52, %59
  %67 = getelementptr inbounds nuw i8, ptr %26, i64 4
  %68 = load i16, ptr %67, align 4, !tbaa !35
  %69 = sext i16 %68 to i32
  %70 = getelementptr inbounds nuw i8, ptr %26, i64 6
  %71 = load i16, ptr %70, align 2, !tbaa !58
  %72 = sext i16 %71 to i64
  %73 = icmp sgt i16 %68, -1
  br i1 %73, label %.lr.ph.preheader.i, label %Buffer_To_Window.exit

.lr.ph.preheader.i:                               ; preds = %.thread.i
  %74 = getelementptr inbounds nuw i8, ptr %0, i64 104
  %75 = load ptr, ptr %74, align 8, !tbaa !52
  br label %.lr.ph.i

.lr.ph.i:                                         ; preds = %92, %.lr.ph.preheader.i
  %.021.i = phi ptr [ %77, %92 ], [ %75, %.lr.ph.preheader.i ]
  %.01720.i = phi i32 [ %93, %92 ], [ 0, %.lr.ph.preheader.i ]
  %76 = getelementptr i8, ptr %.021.i, i64 %72
  %77 = getelementptr i8, ptr %76, i64 1
  br label %78

78:                                               ; preds = %80, %.lr.ph.i
  %.0.i.i = phi ptr [ %77, %.lr.ph.i ], [ %81, %80 ]
  %79 = icmp ugt ptr %.0.i.i, %.021.i
  br i1 %79, label %80, label %After_End_Of_Data.exit.i

80:                                               ; preds = %78
  %81 = getelementptr inbounds i8, ptr %.0.i.i, i64 -1
  %82 = load i8, ptr %81, align 1, !tbaa !54
  %83 = icmp eq i8 %82, 32
  br i1 %83, label %78, label %After_End_Of_Data.exit.i, !llvm.loop !57

After_End_Of_Data.exit.i:                         ; preds = %80, %78
  %84 = ptrtoint ptr %.0.i.i to i64
  %85 = ptrtoint ptr %.021.i to i64
  %86 = sub i64 %84, %85
  %87 = trunc i64 %86 to i32
  %88 = icmp sgt i32 %87, 0
  br i1 %88, label %89, label %92

89:                                               ; preds = %After_End_Of_Data.exit.i
  %90 = tail call i32 @wmove(ptr noundef nonnull %26, i32 noundef %.01720.i, i32 noundef 0) #13
  %91 = tail call i32 @waddnstr(ptr noundef nonnull %26, ptr noundef %.021.i, i32 noundef %87) #13
  br label %92

92:                                               ; preds = %89, %After_End_Of_Data.exit.i
  %93 = add nuw nsw i32 %.01720.i, 1
  %exitcond.not.i = icmp eq i32 %.01720.i, %69
  br i1 %exitcond.not.i, label %Buffer_To_Window.exit, label %.lr.ph.i, !llvm.loop !59

Buffer_To_Window.exit:                            ; preds = %92, %.thread.i, %66, %46
  %94 = load i16, ptr %0, align 8, !tbaa !34
  %95 = and i16 %94, -3
  store i16 %95, ptr %0, align 8, !tbaa !34
  br label %96

96:                                               ; preds = %Buffer_To_Window.exit, %43
  tail call void @wsyncup(ptr noundef nonnull %26) #13
  %97 = tail call i32 @delwin(ptr noundef nonnull %26) #13
  br label %98

98:                                               ; preds = %12, %2, %96
  %.0 = phi i32 [ 0, %96 ], [ -1, %2 ], [ -1, %12 ]
  ret i32 %.0
}